Certificate:
    Data:
        Version: 3 (0x2)
        Serial Number: 15266558114398384810 (0xd3ddb5b82792b2aa)
    Signature Algorithm: sha256WithRSAEncryption
        Issuer: C=NL, ST=Utrecht, L=Utrecht, O=SURFnet, OU=SURFconext, CN=connect.surfconext.nl/emailAddress=surfconext-beheer@surfnet.nl
        Validity
            Not Before: Aug 10 09:49:59 2015 GMT
            Not After : Aug  9 09:49:59 2025 GMT
        Subject: C=NL, ST=Utrecht, L=Utrecht, O=SURFnet, OU=SURFconext, CN=connect.surfconext.nl/emailAddress=surfconext-beheer@surfnet.nl
        Subject Public Key Info:
            Public Key Algorithm: rsaEncryption
                Public-Key: (2048 bit)
                Modulus:
                    00:b2:39:5c:cb:04:1e:da:e9:0c:11:b9:b5:81:4a:
                    ad:78:d8:61:d2:b4:23:68:bc:f7:b2:b2:f8:a9:24:
                    06:13:de:17:b9:52:c8:b1:f3:78:f2:f4:fe:13:41:
                    30:34:dc:ae:ff:3c:ff:05:d7:1b:51:f1:60:66:a2:
                    c0:bd:8d:f6:92:ad:dd:0a:88:93:c6:1c:84:87:e1:
                    75:0c:61:a9:77:4c:fd:b6:e7:4a:83:fd:c8:9d:16:
                    40:3c:16:c3:fb:3e:a3:bd:41:8d:2a:14:38:f2:95:
                    63:16:c4:fa:04:87:69:31:9f:ac:58:be:f3:f7:c2:
                    d1:86:76:eb:33:3a:91:66:c8:ab:e7:bb:4c:7a:23:
                    54:6a:fb:6d:89:67:70:54:e2:cd:68:48:ae:d2:fe:
                    ab:55:24:58:3f:79:9e:86:ee:70:c4:2d:12:ca:c4:
                    5b:16:fe:ba:bd:5e:94:51:af:2b:78:a4:85:3e:c6:
                    a6:60:79:b2:c3:af:f9:eb:e5:6f:a7:61:f6:85:76:
                    32:99:86:b6:85:af:66:76:15:f7:fc:63:bd:8c:43:
                    c5:2f:16:44:d4:c2:27:1c:23:b7:1e:65:1a:d5:e6:
                    24:8a:eb:53:27:81:86:af:18:c2:8a:30:06:f7:07:
                    31:0c:64:ac:1c:1c:01:d0:71:0f:4c:53:41:5a:78:
                    20:af
                Exponent: 65537 (0x10001)
        X509v3 extensions:
            X509v3 Subject Key Identifier: 
                82:16:5F:4A:0A:78:80:69:67:6E:7B:B0:24:7A:5D:85:C1:69:AF:D5
            X509v3 Authority Key Identifier: 
                keyid:82:16:5F:4A:0A:78:80:69:67:6E:7B:B0:24:7A:5D:85:C1:69:AF:D5

            X509v3 Basic Constraints: 
                CA:TRUE
    Signature Algorithm: sha256WithRSAEncryption
         48:c5:6b:c9:48:2c:be:a3:d9:16:82:26:c0:73:5c:2e:f4:ef:
         f5:d1:96:53:a9:66:11:2b:33:d4:e5:6d:33:c8:f2:48:12:7c:
         91:49:2a:4b:83:d4:72:58:2c:ab:2b:d9:7d:63:ec:09:44:11:
         83:f6:1f:0d:a5:c5:c5:b4:df:d5:05:39:8b:7b:eb:2a:e2:2e:
         dc:2d:41:1e:ab:05:2b:e2:69:ae:96:86:a8:3a:ff:1f:cc:25:
         b0:34:bc:e8:fa:99:4d:f8:20:81:4b:16:2f:6b:d4:c4:d0:25:
         c5:98:6c:61:af:55:04:2a:4c:51:97:e9:e5:0c:fb:e7:36:d1:
         d6:e7:96:ea:ae:16:ee:e2:f6:4d:1b:e6:11:74:c6:10:9a:a6:
         43:1c:4b:37:68:d7:13:b1:9d:03:f0:b6:05:d0:1f:53:cf:00:
         52:4d:da:97:90:c3:25:b9:5c:55:d3:7c:ce:90:45:ea:90:54:
         96:b4:b5:d5:fa:f1:79:2c:f6:24:82:5f:8c:45:fc:b8:ed:b7:
         85:19:27:6a:e8:79:91:07:42:78:ff:34:7a:08:08:8a:59:9a:
         fc:9c:5c:48:b8:7a:36:af:26:07:07:8f:13:40:8a:76:e6:22:
         a4:77:3b:6c:aa:22:01:22:5c:80:22:d8:e0:d6:c5:16:8a:f7:
         4b:3c:97:0c
-----BEGIN CERTIFICATE-----
MIIEHzCCAwegAwIBAgIJANPdtbgnkrKqMA0GCSqGSIb3DQEBCwUAMIGlMQswCQYD
VQQGEwJOTDEQMA4GA1UECAwHVXRyZWNodDEQMA4GA1UEBwwHVXRyZWNodDEQMA4G
A1UECgwHU1VSRm5ldDETMBEGA1UECwwKU1VSRmNvbmV4dDEeMBwGA1UEAwwVY29u
bmVjdC5zdXJmY29uZXh0Lm5sMSswKQYJKoZIhvcNAQkBFhxzdXJmY29uZXh0LWJl
aGVlckBzdXJmbmV0Lm5sMB4XDTE1MDgxMDA5NDk1OVoXDTI1MDgwOTA5NDk1OVow
gaUxCzAJBgNVBAYTAk5MMRAwDgYDVQQIDAdVdHJlY2h0MRAwDgYDVQQHDAdVdHJl
Y2h0MRAwDgYDVQQKDAdTVVJGbmV0MRMwEQYDVQQLDApTVVJGY29uZXh0MR4wHAYD
VQQDDBVjb25uZWN0LnN1cmZjb25leHQubmwxKzApBgkqhkiG9w0BCQEWHHN1cmZj
b25leHQtYmVoZWVyQHN1cmZuZXQubmwwggEiMA0GCSqGSIb3DQEBAQUAA4IBDwAw
ggEKAoIBAQCyOVzLBB7a6QwRubWBSq142GHStCNovPeysvipJAYT3he5Usix83jy
9P4TQTA03K7/PP8F1xtR8WBmosC9jfaSrd0KiJPGHISH4XUMYal3TP2250qD/cid
FkA8FsP7PqO9QY0qFDjylWMWxPoEh2kxn6xYvvP3wtGGduszOpFmyKvnu0x6I1Rq
+22JZ3BU4s1oSK7S/qtVJFg/eZ6G7nDELRLKxFsW/rq9XpRRryt4pIU+xqZgebLD
r/nr5W+nYfaFdjKZhraFr2Z2Fff8Y72MQ8UvFkTUwiccI7ceZRrV5iSK61MngYav
GMKKMAb3BzEMZKwcHAHQcQ9MU0FaeCCvAgMBAAGjUDBOMB0GA1UdDgQWBBSCFl9K
CniAaWdue7Akel2FwWmv1TAfBgNVHSMEGDAWgBSCFl9KCniAaWdue7Akel2FwWmv
1TAMBgNVHRMEBTADAQH/MA0GCSqGSIb3DQEBCwUAA4IBAQBIxWvJSCy+o9kWgibA
c1wu9O/10ZZTqWYRKzPU5W0zyPJIEnyRSSpLg9RyWCyrK9l9Y+wJRBGD9h8NpcXF
tN/VBTmLe+sq4i7cLUEeqwUr4mmuloaoOv8fzCWwNLzo+plN+CCBSxYva9TE0CXF
mGxhr1UEKkxRl+nlDPvnNtHW55bqrhbu4vZNG+YRdMYQmqZDHEs3aNcTsZ0D8LYF
0B9TzwBSTdqXkMMluVxV03zOkEXqkFSWtLXV+vF5LPYkgl+MRfy47beFGSdq6HmR
B0J4/zR6CAiKWZr8nFxIuHo2ryYHB48TQIp25iKkdztsqiIBIlyAItjg1sUWivdL
PJcM
-----END CERTIFICATE-----
