Certificate:
    Data:
        Version: 3 (0x2)
        Serial Number:
            10:27:bc:50:a2:f9:c3:fb:66:70:d7:e8:b6:02:01:03:06:90:de:eb
        Signature Algorithm: sha256WithRSAEncryption
        Issuer: C = NL, O = vm.openconext.org, CN = vm.openconext.org, emailAddress = info@vm.openconext.org
        Validity
            Not Before: Jun 13 18:44:22 2019 GMT
            Not After : Jun 12 18:44:22 2022 GMT
        Subject: C = NL, O = vm.openconext.org, CN = vm.openconext.org, emailAddress = info@vm.openconext.org
        Subject Public Key Info:
            Public Key Algorithm: rsaEncryption
                RSA Public-Key: (2048 bit)
                Modulus:
                    00:db:c6:01:08:d0:50:70:13:4b:a2:50:21:d4:fb:
                    3b:c4:83:54:40:f6:2e:88:67:21:14:92:df:4e:20:
                    84:b8:89:02:20:4d:cb:09:3b:97:e1:7e:93:43:c3:
                    87:41:a7:13:84:d6:da:6b:fd:8b:cd:d1:78:87:d3:
                    98:12:61:d0:0b:93:ba:b8:9d:e4:de:65:ab:6c:e9:
                    2e:cf:92:49:e9:09:e0:87:42:48:6b:5f:02:bd:d5:
                    9f:c4:36:09:c2:30:b5:19:55:ff:da:d2:3d:57:ca:
                    ef:a2:1e:f5:95:34:23:7b:dd:01:5e:85:5e:bb:aa:
                    8b:4b:97:6e:99:89:63:31:55:62:7a:3c:59:2d:a4:
                    8c:77:3e:ae:1b:7d:46:8a:0c:56:80:28:82:6a:c9:
                    c1:05:8e:84:c4:75:fd:80:57:cf:cf:92:81:e4:a9:
                    b1:16:c5:69:ca:62:2f:6d:af:61:18:1e:de:34:75:
                    7f:44:69:7d:bc:8c:05:63:3f:75:47:30:ed:3e:a6:
                    af:e6:21:8a:93:4f:15:2d:98:be:be:4d:c5:6b:cb:
                    01:48:38:a5:0c:84:d9:b0:ee:9b:dc:1e:a7:1b:0b:
                    4a:ee:7b:d6:8b:9e:a6:23:39:a0:dd:50:c2:20:a0:
                    df:ec:db:f7:a2:d1:d6:1f:c0:4b:29:0e:1d:08:47:
                    9e:db
                Exponent: 65537 (0x10001)
        X509v3 extensions:
            X509v3 Subject Alternative Name: 
                DNS:vm.openconext.org, DNS:*.vm.openconext.org
    Signature Algorithm: sha256WithRSAEncryption
         b3:e3:1b:43:3f:ab:a6:5c:30:ca:73:7e:5a:ba:10:27:4f:4e:
         c7:bc:1f:89:9d:9f:4c:05:f3:ac:4b:f2:65:92:e6:90:7d:91:
         d3:56:27:f2:c0:35:c9:e4:bf:a3:19:db:53:69:86:c8:0d:b5:
         31:e1:84:bf:3d:09:b2:ae:09:9b:f4:47:d0:87:0c:83:21:3f:
         fe:2c:92:09:ff:19:3d:39:9c:87:46:23:2b:54:90:16:2c:f0:
         28:3b:90:ca:ff:d5:44:4d:1a:de:3d:87:15:41:40:de:4b:03:
         57:90:3a:4b:62:af:3d:0a:a5:c9:af:6f:14:20:12:f3:fe:6a:
         64:64:04:92:0e:04:82:0d:4a:84:c3:38:20:55:12:ab:51:5d:
         48:f5:aa:32:d4:e2:ce:da:5d:65:14:ec:0b:4a:b3:f3:2a:d1:
         02:7a:a8:b5:a4:9c:58:14:76:44:34:d7:84:b2:bb:4a:ad:5f:
         4b:7c:99:4a:79:c1:88:af:9e:0b:21:7e:45:05:4b:c7:82:59:
         34:ea:f1:59:c6:7f:1f:ea:ca:2d:c9:ff:fd:73:ad:66:ba:07:
         78:59:a6:e8:52:ae:35:3f:3a:39:79:25:f8:e5:ab:bd:2d:8a:
         65:2f:3b:21:ff:9a:42:76:1a:e2:98:50:31:f5:45:85:7c:a4:
         45:b8:8a:d5
-----BEGIN CERTIFICATE-----
MIIDmzCCAoOgAwIBAgIUECe8UKL5w/tmcNfotgIBAwaQ3uswDQYJKoZIhvcNAQEL
BQAwbDELMAkGA1UEBhMCTkwxGjAYBgNVBAoMEXZtLm9wZW5jb25leHQub3JnMRow
GAYDVQQDDBF2bS5vcGVuY29uZXh0Lm9yZzElMCMGCSqGSIb3DQEJARYWaW5mb0B2
bS5vcGVuY29uZXh0Lm9yZzAeFw0xOTA2MTMxODQ0MjJaFw0yMjA2MTIxODQ0MjJa
MGwxCzAJBgNVBAYTAk5MMRowGAYDVQQKDBF2bS5vcGVuY29uZXh0Lm9yZzEaMBgG
A1UEAwwRdm0ub3BlbmNvbmV4dC5vcmcxJTAjBgkqhkiG9w0BCQEWFmluZm9Adm0u
b3BlbmNvbmV4dC5vcmcwggEiMA0GCSqGSIb3DQEBAQUAA4IBDwAwggEKAoIBAQDb
xgEI0FBwE0uiUCHU+zvEg1RA9i6IZyEUkt9OIIS4iQIgTcsJO5fhfpNDw4dBpxOE
1tpr/YvN0XiH05gSYdALk7q4neTeZats6S7PkknpCeCHQkhrXwK91Z/ENgnCMLUZ
Vf/a0j1Xyu+iHvWVNCN73QFehV67qotLl26ZiWMxVWJ6PFktpIx3Pq4bfUaKDFaA
KIJqycEFjoTEdf2AV8/PkoHkqbEWxWnKYi9tr2EYHt40dX9EaX28jAVjP3VHMO0+
pq/mIYqTTxUtmL6+TcVrywFIOKUMhNmw7pvcHqcbC0rue9aLnqYjOaDdUMIgoN/s
2/ei0dYfwEspDh0IR57bAgMBAAGjNTAzMDEGA1UdEQQqMCiCEXZtLm9wZW5jb25l
eHQub3JnghMqLnZtLm9wZW5jb25leHQub3JnMA0GCSqGSIb3DQEBCwUAA4IBAQCz
4xtDP6umXDDKc35auhAnT07HvB+JnZ9MBfOsS/JlkuaQfZHTVifywDXJ5L+jGdtT
aYbIDbUx4YS/PQmyrgmb9EfQhwyDIT/+LJIJ/xk9OZyHRiMrVJAWLPAoO5DK/9VE
TRrePYcVQUDeSwNXkDpLYq89CqXJr28UIBLz/mpkZASSDgSCDUqEwzggVRKrUV1I
9aoy1OLO2l1lFOwLSrPzKtECeqi1pJxYFHZENNeEsrtKrV9LfJlKecGIr54LIX5F
BUvHglk06vFZxn8f6sotyf/9c61mugd4WaboUq41Pzo5eSX45au9LYplLzsh/5pC
dhrimFAx9UWFfKRFuIrV
-----END CERTIFICATE-----
