Certificate:
    Data:
        Version: 3 (0x2)
        Serial Number: 12568825522158815632 (0xae6d70384c23c990)
    Signature Algorithm: sha256WithRSAEncryption
        Issuer: C=NL, ST=Utrecht, L=Utrecht, O=SURFnet, OU=SURFconext, CN=apis.connect.surfconext.nl/emailAddress=surfconext-beheer@surfnet.nl
        Validity
            Not Before: Aug 10 09:52:34 2015 GMT
            Not After : Aug  9 09:52:34 2025 GMT
        Subject: C=NL, ST=Utrecht, L=Utrecht, O=SURFnet, OU=SURFconext, CN=apis.connect.surfconext.nl/emailAddress=surfconext-beheer@surfnet.nl
        Subject Public Key Info:
            Public Key Algorithm: rsaEncryption
                Public-Key: (2048 bit)
                Modulus:
                    00:df:5c:d6:7f:bb:bc:3f:5e:fa:ca:98:5f:e6:cb:
                    df:3d:2a:42:1b:36:24:51:84:07:17:99:00:71:c0:
                    52:bb:a9:8d:eb:8a:ae:4e:e2:b4:0a:a9:e9:eb:ce:
                    da:ad:52:fb:4d:ef:f2:7a:8b:78:f0:1f:49:2d:6c:
                    9f:89:00:cf:c8:2e:dd:d6:fb:6a:7c:e3:36:8d:45:
                    1f:62:5b:44:9a:90:ea:1b:96:62:c6:01:8f:05:a8:
                    a1:d3:4b:a6:e0:06:75:b1:f7:fb:8f:7e:ab:b0:2f:
                    e5:52:44:48:2f:e6:87:6e:03:75:db:a2:d8:94:09:
                    66:63:e7:fc:be:1d:87:cb:10:6d:31:d6:0f:c6:c9:
                    cf:97:6e:b9:a4:df:8f:8b:60:8f:f8:17:1d:79:97:
                    cc:83:be:70:b4:77:ca:8f:3f:ec:10:81:08:8e:17:
                    80:8e:7a:f0:ef:33:34:37:68:1a:61:3e:ac:ba:e6:
                    92:d2:20:2d:08:12:3f:20:89:ac:a5:16:90:0e:81:
                    15:05:95:01:5c:c0:39:67:bd:b3:f9:76:b0:1c:dc:
                    fc:8b:1c:28:be:aa:23:07:59:7a:ec:56:b0:f9:18:
                    21:88:bb:4f:73:e7:5f:20:38:97:60:6e:17:13:4a:
                    1e:b4:71:3b:08:4e:66:e3:8e:c0:0f:3b:23:da:f0:
                    c1:19
                Exponent: 65537 (0x10001)
        X509v3 extensions:
            X509v3 Subject Key Identifier: 
                57:B4:12:44:45:5A:2F:75:39:F3:75:FE:63:5A:88:B7:9B:D0:04:0D
            X509v3 Authority Key Identifier: 
                keyid:57:B4:12:44:45:5A:2F:75:39:F3:75:FE:63:5A:88:B7:9B:D0:04:0D

            X509v3 Basic Constraints: 
                CA:TRUE
    Signature Algorithm: sha256WithRSAEncryption
         91:41:01:2d:f8:96:3d:fa:38:95:33:7f:ff:7c:87:1d:a0:fc:
         02:27:c2:5b:80:22:d9:e9:5a:cc:62:9c:67:a7:aa:89:50:9e:
         ea:0a:a1:7d:f7:7d:95:a3:45:7c:15:56:db:1a:3d:19:82:2d:
         63:fe:18:93:6a:c3:15:5b:7f:8f:ff:b9:49:66:7b:fd:fa:c1:
         c6:87:dc:1e:52:02:07:79:06:b9:4a:db:a2:0a:fa:0b:fb:96:
         d0:87:05:c7:6d:3a:66:b9:6c:9d:49:49:8a:cf:d6:61:57:fa:
         07:e9:79:4d:0d:c8:10:5e:f7:4f:60:57:f4:f4:6c:8b:10:7f:
         83:70:fa:e3:ea:a7:47:27:6c:0c:23:08:f3:93:bc:96:d7:c9:
         f7:2f:e1:46:ff:0a:c0:83:ed:3a:c7:47:29:ad:fd:41:c2:e4:
         aa:07:ff:24:46:ad:10:91:6e:b0:1c:74:98:10:ba:4c:c5:65:
         94:6f:e2:ae:43:0a:81:8e:1d:36:7e:c1:22:53:42:04:b0:bb:
         14:d3:52:f4:c3:70:a3:d5:0e:a4:6f:05:84:2c:70:b4:fe:9b:
         48:c5:4f:3a:d3:d7:20:4c:91:f6:2f:5e:53:26:f0:ef:e7:46:
         1c:ed:15:b9:43:42:cf:3c:c1:19:b3:bb:2d:d3:34:db:01:91:
         40:7f:ad:0d
-----BEGIN CERTIFICATE-----
MIIEKTCCAxGgAwIBAgIJAK5tcDhMI8mQMA0GCSqGSIb3DQEBCwUAMIGqMQswCQYD
VQQGEwJOTDEQMA4GA1UECAwHVXRyZWNodDEQMA4GA1UEBwwHVXRyZWNodDEQMA4G
A1UECgwHU1VSRm5ldDETMBEGA1UECwwKU1VSRmNvbmV4dDEjMCEGA1UEAwwaYXBp
cy5jb25uZWN0LnN1cmZjb25leHQubmwxKzApBgkqhkiG9w0BCQEWHHN1cmZjb25l
eHQtYmVoZWVyQHN1cmZuZXQubmwwHhcNMTUwODEwMDk1MjM0WhcNMjUwODA5MDk1
MjM0WjCBqjELMAkGA1UEBhMCTkwxEDAOBgNVBAgMB1V0cmVjaHQxEDAOBgNVBAcM
B1V0cmVjaHQxEDAOBgNVBAoMB1NVUkZuZXQxEzARBgNVBAsMClNVUkZjb25leHQx
IzAhBgNVBAMMGmFwaXMuY29ubmVjdC5zdXJmY29uZXh0Lm5sMSswKQYJKoZIhvcN
AQkBFhxzdXJmY29uZXh0LWJlaGVlckBzdXJmbmV0Lm5sMIIBIjANBgkqhkiG9w0B
AQEFAAOCAQ8AMIIBCgKCAQEA31zWf7u8P176yphf5svfPSpCGzYkUYQHF5kAccBS
u6mN64quTuK0Cqnp687arVL7Te/yeot48B9JLWyfiQDPyC7d1vtqfOM2jUUfYltE
mpDqG5ZixgGPBaih00um4AZ1sff7j36rsC/lUkRIL+aHbgN126LYlAlmY+f8vh2H
yxBtMdYPxsnPl265pN+Pi2CP+BcdeZfMg75wtHfKjz/sEIEIjheAjnrw7zM0N2ga
YT6suuaS0iAtCBI/IImspRaQDoEVBZUBXMA5Z72z+XawHNz8ixwovqojB1l67Faw
+RghiLtPc+dfIDiXYG4XE0oetHE7CE5m447ADzsj2vDBGQIDAQABo1AwTjAdBgNV
HQ4EFgQUV7QSREVaL3U583X+Y1qIt5vQBA0wHwYDVR0jBBgwFoAUV7QSREVaL3U5
83X+Y1qIt5vQBA0wDAYDVR0TBAUwAwEB/zANBgkqhkiG9w0BAQsFAAOCAQEAkUEB
LfiWPfo4lTN//3yHHaD8AifCW4Ai2elazGKcZ6eqiVCe6gqhffd9laNFfBVW2xo9
GYItY/4Yk2rDFVt/j/+5SWZ7/frBxofcHlICB3kGuUrbogr6C/uW0IcFx206Zrls
nUlJis/WYVf6B+l5TQ3IEF73T2BX9PRsixB/g3D64+qnRydsDCMI85O8ltfJ9y/h
Rv8KwIPtOsdHKa39QcLkqgf/JEatEJFusBx0mBC6TMVllG/irkMKgY4dNn7BIlNC
BLC7FNNS9MNwo9UOpG8FhCxwtP6bSMVPOtPXIEyR9i9eUybw7+dGHO0VuUNCzzzB
GbO7LdM02wGRQH+tDQ==
-----END CERTIFICATE-----
